; ModuleID = '22/1100.c'
source_filename = "22/1100.c"
target datalayout = "e-m:e-p270:32:32-p271:32:32-p272:64:64-i64:64-f80:128-n8:16:32:64-S128"
target triple = "x86_64-pc-linux-gnu"

@.str = private unnamed_addr constant [3 x i8] c"%d\00", align 1
@.str.1 = private unnamed_addr constant [3 x i8] c"No\00", align 1

; Function Attrs: noinline nounwind uwtable
define dso_local i32 @main() #0 {
  %1 = alloca i32, align 4
  %2 = alloca i32, align 4
  %3 = alloca i32, align 4
  %4 = alloca i32, align 4
  %5 = alloca i32, align 4
  %6 = alloca [305 x i32], align 16
  %7 = alloca i8, align 1
  store i32 0, i32* %1, align 4
  store i32 1, i32* %2, align 4
  br label %8

8:                                                ; preds = %20, %0
  %9 = load i32, i32* %2, align 4
  %10 = sext i32 %9 to i64
  %11 = getelementptr inbounds [305 x i32], [305 x i32]* %6, i64 0, i64 %10
  %12 = call i32 (i8*, ...) @__isoc99_scanf(i8* getelementptr inbounds ([3 x i8], [3 x i8]* @.str, i64 0, i64 0), i32* %11)
  %13 = call i32 @getchar()
  %14 = trunc i32 %13 to i8
  store i8 %14, i8* %7, align 1
  %15 = load i8, i8* %7, align 1
  %16 = sext i8 %15 to i32
  %17 = icmp eq i32 %16, 10
  br i1 %17, label %18, label %19

18:                                               ; preds = %8
  br label %23

19:                                               ; preds = %8
  br label %20

20:                                               ; preds = %19
  %21 = load i32, i32* %2, align 4
  %22 = add nsw i32 %21, 1
  store i32 %22, i32* %2, align 4
  br label %8

23:                                               ; preds = %18
  store i32 1, i32* %3, align 4
  br label %24

24:                                               ; preds = %70, %23
  %25 = load i32, i32* %3, align 4
  %26 = load i32, i32* %2, align 4
  %27 = sub nsw i32 %26, 1
  %28 = icmp sle i32 %25, %27
  br i1 %28, label %29, label %73

29:                                               ; preds = %24
  store i32 1, i32* %4, align 4
  br label %30

30:                                               ; preds = %66, %29
  %31 = load i32, i32* %4, align 4
  %32 = load i32, i32* %2, align 4
  %33 = load i32, i32* %3, align 4
  %34 = sub nsw i32 %32, %33
  %35 = icmp sle i32 %31, %34
  br i1 %35, label %36, label %69

36:                                               ; preds = %30
  %37 = load i32, i32* %4, align 4
  %38 = sext i32 %37 to i64
  %39 = getelementptr inbounds [305 x i32], [305 x i32]* %6, i64 0, i64 %38
  %40 = load i32, i32* %39, align 4
  %41 = load i32, i32* %4, align 4
  %42 = add nsw i32 %41, 1
  %43 = sext i32 %42 to i64
  %44 = getelementptr inbounds [305 x i32], [305 x i32]* %6, i64 0, i64 %43
  %45 = load i32, i32* %44, align 4
  %46 = icmp sgt i32 %40, %45
  br i1 %46, label %47, label %65

47:                                               ; preds = %36
  %48 = load i32, i32* %4, align 4
  %49 = sext i32 %48 to i64
  %50 = getelementptr inbounds [305 x i32], [305 x i32]* %6, i64 0, i64 %49
  %51 = load i32, i32* %50, align 4
  store i32 %51, i32* %5, align 4
  %52 = load i32, i32* %4, align 4
  %53 = add nsw i32 %52, 1
  %54 = sext i32 %53 to i64
  %55 = getelementptr inbounds [305 x i32], [305 x i32]* %6, i64 0, i64 %54
  %56 = load i32, i32* %55, align 4
  %57 = load i32, i32* %4, align 4
  %58 = sext i32 %57 to i64
  %59 = getelementptr inbounds [305 x i32], [305 x i32]* %6, i64 0, i64 %58
  store i32 %56, i32* %59, align 4
  %60 = load i32, i32* %5, align 4
  %61 = load i32, i32* %4, align 4
  %62 = add nsw i32 %61, 1
  %63 = sext i32 %62 to i64
  %64 = getelementptr inbounds [305 x i32], [305 x i32]* %6, i64 0, i64 %63
  store i32 %60, i32* %64, align 4
  br label %65

65:                                               ; preds = %47, %36
  br label %66

66:                                               ; preds = %65
  %67 = load i32, i32* %4, align 4
  %68 = add nsw i32 %67, 1
  store i32 %68, i32* %4, align 4
  br label %30

69:                                               ; preds = %30
  br label %70

70:                                               ; preds = %69
  %71 = load i32, i32* %3, align 4
  %72 = add nsw i32 %71, 1
  store i32 %72, i32* %3, align 4
  br label %24

73:                                               ; preds = %24
  %74 = getelementptr inbounds [305 x i32], [305 x i32]* %6, i64 0, i64 1
  %75 = load i32, i32* %74, align 4
  %76 = load i32, i32* %2, align 4
  %77 = sext i32 %76 to i64
  %78 = getelementptr inbounds [305 x i32], [305 x i32]* %6, i64 0, i64 %77
  %79 = load i32, i32* %78, align 4
  %80 = icmp eq i32 %75, %79
  br i1 %80, label %81, label %83

81:                                               ; preds = %73
  %82 = call i32 (i8*, ...) @printf(i8* getelementptr inbounds ([3 x i8], [3 x i8]* @.str.1, i64 0, i64 0))
  br label %107

83:                                               ; preds = %73
  %84 = load i32, i32* %2, align 4
  %85 = sub nsw i32 %84, 1
  store i32 %85, i32* %3, align 4
  br label %86

86:                                               ; preds = %98, %83
  %87 = load i32, i32* %3, align 4
  %88 = sext i32 %87 to i64
  %89 = getelementptr inbounds [305 x i32], [305 x i32]* %6, i64 0, i64 %88
  %90 = load i32, i32* %89, align 4
  %91 = load i32, i32* %2, align 4
  %92 = sext i32 %91 to i64
  %93 = getelementptr inbounds [305 x i32], [305 x i32]* %6, i64 0, i64 %92
  %94 = load i32, i32* %93, align 4
  %95 = icmp ne i32 %90, %94
  br i1 %95, label %96, label %97

96:                                               ; preds = %86
  br label %101

97:                                               ; preds = %86
  br label %98

98:                                               ; preds = %97
  %99 = load i32, i32* %3, align 4
  %100 = add nsw i32 %99, -1
  store i32 %100, i32* %3, align 4
  br label %86

101:                                              ; preds = %96
  %102 = load i32, i32* %3, align 4
  %103 = sext i32 %102 to i64
  %104 = getelementptr inbounds [305 x i32], [305 x i32]* %6, i64 0, i64 %103
  %105 = load i32, i32* %104, align 4
  %106 = call i32 (i8*, ...) @printf(i8* getelementptr inbounds ([3 x i8], [3 x i8]* @.str, i64 0, i64 0), i32 %105)
  br label %107

107:                                              ; preds = %101, %81
  ret i32 0
}

declare dso_local i32 @__isoc99_scanf(i8*, ...) #1

declare dso_local i32 @getchar() #1

declare dso_local i32 @printf(i8*, ...) #1


!llvm.module.flags = !{!0}
!llvm.ident = !{!1}

!0 = !{i32 1, !"wchar_size", i32 4}
!1 = !{!"clang version 10.0.0-4ubuntu1 "}
